; Function Attrs: mustprogress uwtable
define void @_ZN32pxrInternal_v0_24__pxrReserved__16PcpErrorArcCycle3NewEv(ptr dead_on_unwind noalias nocapture writable writeonly sret(%"class.std::shared_ptr.1") align 8 %0) local_unnamed_addr #0 align 2 personality ptr @__gxx_personality_v0 {
  %2 = tail call noalias noundef nonnull dereferenceable(128) ptr @_Znwm(i64 noundef 128) #20
  invoke void @_ZN32pxrInternal_v0_24__pxrReserved__16PcpErrorArcCycleC1Ev(ptr noundef nonnull align 8 dereferenceable(128) %2)
          to label %3 unwind label %22

3:                                                ; preds = %1
  store ptr %2, ptr %0, align 8
  %4 = getelementptr inbounds nuw i8, ptr %0, i64 8
  store ptr null, ptr %4, align 8
  %5 = invoke noalias noundef nonnull dereferenceable(24) ptr @_Znwm(i64 noundef 24) #20
          to label %_ZNSt10shared_ptrIN32pxrInternal_v0_24__pxrReserved__16PcpErrorArcCycleEEC2IS1_vEEPT_.exit unwind label %6

6:                                                ; preds = %3
  %7 = landingpad { ptr, i32 }
          catch ptr null
  %8 = extractvalue { ptr, i32 } %7, 0
  %9 = tail call ptr @__cxa_begin_catch(ptr %8) #19
  %10 = load ptr, ptr %2, align 8
  %11 = getelementptr inbounds i8, ptr %10, i64 8
  %12 = load ptr, ptr %11, align 8
  tail call void %12(ptr noundef nonnull align 8 dereferenceable(128) %2) #19
  invoke void @__cxa_rethrow() #21
          to label %18 unwind label %13

13:                                               ; preds = %6
  %14 = landingpad { ptr, i32 }
          cleanup
  invoke void @__cxa_end_catch()
          to label %common.resume unwind label %15

common.resume:                                    ; preds = %13, %22
  %common.resume.op = phi { ptr, i32 } [ %23, %22 ], [ %14, %13 ]
  resume { ptr, i32 } %common.resume.op

15:                                               ; preds = %13
  %16 = landingpad { ptr, i32 }
          catch ptr null
  %17 = extractvalue { ptr, i32 } %16, 0
  tail call void @__clang_call_terminate(ptr %17) #18
  unreachable

18:                                               ; preds = %6
  unreachable

_ZNSt10shared_ptrIN32pxrInternal_v0_24__pxrReserved__16PcpErrorArcCycleEEC2IS1_vEEPT_.exit: ; preds = %3
  %19 = getelementptr inbounds nuw i8, ptr %5, i64 8
  store i32 1, ptr %19, align 8
  %20 = getelementptr inbounds nuw i8, ptr %5, i64 12
  store i32 1, ptr %20, align 4
  store ptr getelementptr inbounds inrange(-16, 40) (i8, ptr @_ZTVSt15_Sp_counted_ptrIPN32pxrInternal_v0_24__pxrReserved__16PcpErrorArcCycleELN9__gnu_cxx12_Lock_policyE2EE, i64 16), ptr %5, align 8
  %21 = getelementptr inbounds nuw i8, ptr %5, i64 16
  store ptr %2, ptr %21, align 8
  store ptr %5, ptr %4, align 8
  ret void

22:                                               ; preds = %1
  %23 = landingpad { ptr, i32 }
          cleanup
  tail call void @_ZdlPvm(ptr noundef nonnull %2, i64 noundef 128) #22
  br label %common.resume
}